; Function Attrs: mustprogress nofree norecurse nosync nounwind willreturn memory(read, inaccessiblemem: none) uwtable
define noundef float @_ZNK12b2WheelJoint19GetJointLinearSpeedEv(ptr nocapture noundef nonnull readonly align 8 dereferenceable(308) %this) local_unnamed_addr #6 align 2 {
entry:
  %m_bodyA = getelementptr inbounds i8, ptr %this, i64 96
  %0 = load ptr, ptr %m_bodyA, align 8
  %m_bodyB = getelementptr inbounds i8, ptr %this, i64 104
  %1 = load ptr, ptr %m_bodyB, align 8
  %q = getelementptr inbounds i8, ptr %0, i64 20
  %m_localAnchorA = getelementptr inbounds i8, ptr %this, i64 128
  %m_sweep = getelementptr inbounds i8, ptr %0, i64 28
  %2 = load float, ptr %m_localAnchorA, align 8
  %3 = load float, ptr %m_sweep, align 4
  %y.i = getelementptr inbounds i8, ptr %this, i64 132
  %4 = load float, ptr %y.i, align 4
  %y2.i = getelementptr inbounds i8, ptr %0, i64 32
  %5 = load float, ptr %y2.i, align 4
  %c.i = getelementptr inbounds i8, ptr %0, i64 24
  %6 = load float, ptr %c.i, align 4
  %7 = load float, ptr %q, align 4
  %q4 = getelementptr inbounds i8, ptr %1, i64 20
  %m_localAnchorB = getelementptr inbounds i8, ptr %this, i64 136
  %m_sweep6 = getelementptr inbounds i8, ptr %1, i64 28
  %8 = load <4 x float>, ptr %m_localAnchorB, align 8
  %9 = shufflevector <4 x float> %8, <4 x float> poison, <2 x i32> <i32 0, i32 poison>
  %10 = load float, ptr %m_sweep6, align 4
  %y.i15 = getelementptr inbounds i8, ptr %this, i64 140
  %11 = load <4 x float>, ptr %y.i15, align 4
  %12 = shufflevector <4 x float> %11, <4 x float> poison, <2 x i32> <i32 0, i32 poison>
  %y2.i16 = getelementptr inbounds i8, ptr %1, i64 32
  %13 = load float, ptr %y2.i16, align 4
  %c.i20 = getelementptr inbounds i8, ptr %1, i64 24
  %14 = load float, ptr %c.i20, align 4
  %15 = load float, ptr %q4, align 4
  %c = getelementptr inbounds i8, ptr %0, i64 44
  %16 = load float, ptr %c, align 4
  %y.i26 = getelementptr inbounds i8, ptr %0, i64 48
  %17 = load float, ptr %y.i26, align 4
  %c13 = getelementptr inbounds i8, ptr %1, i64 44
  %18 = load float, ptr %c13, align 4
  %19 = insertelement <2 x float> %12, float %4, i64 1
  %20 = insertelement <2 x float> poison, float %13, i64 0
  %21 = insertelement <2 x float> %20, float %5, i64 1
  %22 = fsub <2 x float> %19, %21
  %23 = insertelement <2 x float> %9, float %2, i64 1
  %24 = insertelement <2 x float> poison, float %10, i64 0
  %25 = insertelement <2 x float> %24, float %3, i64 1
  %26 = fsub <2 x float> %23, %25
  %27 = insertelement <2 x float> poison, float %15, i64 0
  %28 = insertelement <2 x float> %27, float %7, i64 1
  %29 = fneg <2 x float> %28
  %30 = fmul <2 x float> %22, %29
  %31 = insertelement <2 x float> poison, float %14, i64 0
  %32 = insertelement <2 x float> %31, float %6, i64 1
  %33 = tail call <2 x float> @llvm.fmuladd.v2f32(<2 x float> %32, <2 x float> %26, <2 x float> %30)
  %34 = insertelement <2 x float> poison, float %18, i64 0
  %35 = insertelement <2 x float> %34, float %16, i64 1
  %36 = fadd <2 x float> %33, %35
  %y.i31 = getelementptr inbounds i8, ptr %1, i64 48
  %37 = load float, ptr %y.i31, align 4
  %38 = fmul <2 x float> %32, %22
  %39 = tail call <2 x float> @llvm.fmuladd.v2f32(<2 x float> %28, <2 x float> %26, <2 x float> %38)
  %40 = insertelement <2 x float> poison, float %37, i64 0
  %41 = insertelement <2 x float> %40, float %17, i64 1
  %42 = fadd <2 x float> %39, %41
  %shift = shufflevector <2 x float> %36, <2 x float> poison, <2 x i32> <i32 1, i32 poison>
  %43 = fsub <2 x float> %36, %shift
  %sub.i36 = extractelement <2 x float> %43, i64 0
  %shift98 = shufflevector <2 x float> %42, <2 x float> poison, <2 x i32> <i32 1, i32 poison>
  %44 = fsub <2 x float> %42, %shift98
  %sub3.i39 = extractelement <2 x float> %44, i64 0
  %m_localXAxisA = getelementptr inbounds i8, ptr %this, i64 144
  %45 = load float, ptr %m_localXAxisA, align 8
  %y.i43 = getelementptr inbounds i8, ptr %this, i64 148
  %46 = load float, ptr %y.i43, align 4
  %47 = extractelement <2 x float> %29, i64 1
  %neg.i44 = fmul float %46, %47
  %48 = tail call float @llvm.fmuladd.f32(float %6, float %45, float %neg.i44)
  %mul6.i45 = fmul float %6, %46
  %49 = tail call float @llvm.fmuladd.f32(float %7, float %45, float %mul6.i45)
  %m_linearVelocity = getelementptr inbounds i8, ptr %0, i64 64
  %50 = load float, ptr %m_linearVelocity, align 8
  %m_linearVelocity.sroa_idx = getelementptr inbounds i8, ptr %0, i64 68
  %51 = load float, ptr %m_linearVelocity.sroa_idx, align 4
  %m_linearVelocity19 = getelementptr inbounds i8, ptr %1, i64 64
  %52 = load float, ptr %m_linearVelocity19, align 8
  %m_linearVelocity19.sroa_idx = getelementptr inbounds i8, ptr %1, i64 68
  %53 = load float, ptr %m_linearVelocity19.sroa_idx, align 4
  %m_angularVelocity = getelementptr inbounds i8, ptr %0, i64 72
  %54 = load float, ptr %m_angularVelocity, align 8
  %m_angularVelocity20 = getelementptr inbounds i8, ptr %1, i64 72
  %55 = load float, ptr %m_angularVelocity20, align 8
  %fneg.i = fneg float %54
  %mul.i = fmul float %49, %fneg.i
  %mul1.i = fmul float %48, %54
  %mul3.i = fmul float %sub3.i39, %mul1.i
  %56 = tail call noundef float @llvm.fmuladd.f32(float %sub.i36, float %mul.i, float %mul3.i)
  %57 = extractelement <2 x float> %33, i64 0
  %mul1.i56 = fmul float %57, %55
  %58 = extractelement <2 x float> %39, i64 0
  %59 = fmul float %58, %55
  %add.i59 = fsub float %52, %59
  %add3.i62 = fadd float %53, %mul1.i56
  %sub.i65 = fsub float %add.i59, %50
  %sub3.i68 = fsub float %add3.i62, %51
  %60 = extractelement <2 x float> %33, i64 1
  %mul1.i74 = fmul float %60, %54
  %61 = extractelement <2 x float> %39, i64 1
  %62 = fmul float %61, %54
  %sub.i77 = fadd float %62, %sub.i65
  %sub3.i80 = fsub float %sub3.i68, %mul1.i74
  %mul3.i85 = fmul float %49, %sub3.i80
  %63 = tail call noundef float @llvm.fmuladd.f32(float %48, float %sub.i77, float %mul3.i85)
  %add = fadd float %56, %63
  ret float %add
}